target datalayout = "e-m:e-p270:32:32-p271:32:32-p272:64:64-i64:64-i128:128-f80:128-n8:16:32:64-S128"
target triple = "x86_64-pc-linux-gnu"

%struct.RelationData = type { %struct.RelFileLocator, ptr, i32, i32, i8, i8, i8, i8, i8, i32, i32, i32, i32, ptr, ptr, i32, %struct.LockInfoData, ptr, ptr, ptr, ptr, ptr, i8, ptr, ptr, ptr, ptr, ptr, ptr, i32, ptr, i8, ptr, ptr, i32, i8, i32, ptr, i8, ptr, ptr, ptr, ptr, ptr, ptr, ptr, i32, ptr, ptr, ptr, ptr, ptr, ptr, ptr, ptr, ptr, ptr, ptr, ptr, ptr, ptr, ptr, ptr, ptr, ptr, ptr, i32, i8, ptr }
%struct.RelFileLocator = type { i32, i32, i32 }
%struct.LockInfoData = type { %struct.LockRelId }
%struct.LockRelId = type { i32, i32 }

@.str.1 = private unnamed_addr constant [11 x i8] c"relcache.c\00", align 1
@.str.75 = private unnamed_addr constant [40 x i8] c"could not open critical system index %u\00", align 1
@__func__.load_critical_index = private unnamed_addr constant [20 x i8] c"load_critical_index\00", align 1

; Function Attrs: nounwind uwtable
define internal void @load_critical_index(i32 noundef %0, i32 noundef %1) #0 {
  %3 = alloca i32, align 4
  %4 = alloca i32, align 4
  %5 = alloca ptr, align 8
  store i32 %0, ptr %3, align 4
  store i32 %1, ptr %4, align 4
  call void @llvm.lifetime.start.p0(i64 8, ptr %5) #11
  %6 = load i32, ptr %4, align 4
  call void @LockRelationOid(i32 noundef %6, i32 noundef 1)
  %7 = load i32, ptr %3, align 4
  call void @LockRelationOid(i32 noundef %7, i32 noundef 1)
  %8 = load i32, ptr %3, align 4
  %9 = call ptr @RelationBuildDesc(i32 noundef %8, i1 noundef zeroext true)
  store ptr %9, ptr %5, align 8
  %10 = load ptr, ptr %5, align 8
  %11 = icmp eq ptr %10, null
  br i1 %11, label %12, label %25

12:                                               ; preds = %2
  br label %13

13:                                               ; preds = %12
  br i1 true, label %14, label %16

14:                                               ; preds = %13
  %15 = call zeroext i1 @errstart_cold(i32 noundef 23, ptr noundef null) #12
  br i1 %15, label %18, label %22

16:                                               ; preds = %13
  %17 = call zeroext i1 @errstart(i32 noundef 23, ptr noundef null)
  br i1 %17, label %18, label %22

18:                                               ; preds = %16, %14
  %19 = call i32 @errcode(i32 noundef 16779816)
  %20 = load i32, ptr %3, align 4
  %21 = call i32 (ptr, ...) @errmsg_internal(ptr noundef @.str.75, i32 noundef %20)
  call void @errfinish(ptr noundef @.str.1, i32 noundef 4355, ptr noundef @__func__.load_critical_index)
  br label %22

22:                                               ; preds = %18, %16, %14
  unreachable

23:                                               ; No predecessors!
  br label %24

24:                                               ; preds = %23
  br label %25

25:                                               ; preds = %24, %2
  %26 = load ptr, ptr %5, align 8
  %27 = getelementptr inbounds nuw %struct.RelationData, ptr %26, i32 0, i32 5
  store i8 1, ptr %27, align 1
  %28 = load ptr, ptr %5, align 8
  %29 = getelementptr inbounds nuw %struct.RelationData, ptr %28, i32 0, i32 2
  store i32 1, ptr %29, align 8
  %30 = load i32, ptr %3, align 4
  call void @UnlockRelationOid(i32 noundef %30, i32 noundef 1)
  %31 = load i32, ptr %4, align 4
  call void @UnlockRelationOid(i32 noundef %31, i32 noundef 1)
  %32 = load ptr, ptr %5, align 8
  %33 = call ptr @RelationGetIndexAttOptions(ptr noundef %32, i1 noundef zeroext false)
  call void @llvm.lifetime.end.p0(i64 8, ptr %5) #11
  ret void
}