; Function Attrs: nounwind uwtable
define internal fastcc void @load_critical_index(i32 noundef range(i32 2655, 3594) %0, i32 noundef range(i32 1249, 3593) %1) unnamed_addr #0 {
  tail call void @LockRelationOid(i32 noundef %1, i32 noundef 1) #13
  tail call void @LockRelationOid(i32 noundef %0, i32 noundef 1) #13
  %3 = tail call fastcc ptr @RelationBuildDesc(i32 noundef %0, i1 noundef zeroext true)
  %4 = icmp eq ptr %3, null
  br i1 %4, label %5, label %9

5:                                                ; preds = %2
  %6 = tail call zeroext i1 @errstart_cold(i32 noundef 23, ptr noundef null) #14
  tail call void @llvm.assume(i1 %6)
  %7 = tail call i32 @errcode(i32 noundef 16779816) #13
  %8 = tail call i32 (ptr, ...) @errmsg_internal(ptr noundef nonnull @.str.75, i32 noundef %0) #13
  tail call void @errfinish(ptr noundef nonnull @.str.1, i32 noundef 4355, ptr noundef nonnull @__func__.load_critical_index) #13
  unreachable

9:                                                ; preds = %2
  %10 = getelementptr inbounds nuw i8, ptr %3, i64 33
  store i8 1, ptr %10, align 1
  %11 = getelementptr inbounds nuw i8, ptr %3, i64 24
  store i32 1, ptr %11, align 8
  tail call void @UnlockRelationOid(i32 noundef %0, i32 noundef 1) #13
  tail call void @UnlockRelationOid(i32 noundef %1, i32 noundef 1) #13
  %12 = tail call ptr @RelationGetIndexAttOptions(ptr noundef nonnull %3, i1 noundef zeroext false)
  ret void
}